target datalayout = "e-m:e-p270:32:32-p271:32:32-p272:64:64-i64:64-i128:128-f80:128-n8:16:32:64-S128"
target triple = "x86_64-pc-linux-gnu"

%"class.duckdb_re2::StringPiece" = type { ptr, i64 }

; Function Attrs: mustprogress nounwind uwtable
define linkonce_odr hidden noundef zeroext i1 @_ZN10duckdb_re24Prog10IsWordCharEh(i8 noundef zeroext %0) #1 comdat align 2 {
  %2 = alloca i8, align 1
  store i8 %0, ptr %2, align 1, !tbaa !10
  %3 = load i8, ptr %2, align 1, !tbaa !10
  %4 = zext i8 %3 to i32
  %5 = icmp sle i32 65, %4
  br i1 %5, label %6, label %10

6:                                                ; preds = %1
  %7 = load i8, ptr %2, align 1, !tbaa !10
  %8 = zext i8 %7 to i32
  %9 = icmp sle i32 %8, 90
  br i1 %9, label %30, label %10

10:                                               ; preds = %6, %1
  %11 = load i8, ptr %2, align 1, !tbaa !10
  %12 = zext i8 %11 to i32
  %13 = icmp sle i32 97, %12
  br i1 %13, label %14, label %18

14:                                               ; preds = %10
  %15 = load i8, ptr %2, align 1, !tbaa !10
  %16 = zext i8 %15 to i32
  %17 = icmp sle i32 %16, 122
  br i1 %17, label %30, label %18

18:                                               ; preds = %14, %10
  %19 = load i8, ptr %2, align 1, !tbaa !10
  %20 = zext i8 %19 to i32
  %21 = icmp sle i32 48, %20
  br i1 %21, label %22, label %26

22:                                               ; preds = %18
  %23 = load i8, ptr %2, align 1, !tbaa !10
  %24 = zext i8 %23 to i32
  %25 = icmp sle i32 %24, 57
  br i1 %25, label %30, label %26

26:                                               ; preds = %22, %18
  %27 = load i8, ptr %2, align 1, !tbaa !10
  %28 = zext i8 %27 to i32
  %29 = icmp eq i32 %28, 95
  br label %30

30:                                               ; preds = %26, %22, %14, %6
  %31 = phi i1 [ true, %22 ], [ true, %14 ], [ true, %6 ], [ %29, %26 ]
  ret i1 %31
}

; Function Attrs: mustprogress nounwind uwtable
define linkonce_odr hidden noundef i64 @_ZNK10duckdb_re211StringPiece4sizeEv(ptr noundef nonnull align 8 dereferenceable(16) %0) #1 comdat align 2 {
  %2 = alloca ptr, align 8
  store ptr %0, ptr %2, align 8, !tbaa !111
  %3 = load ptr, ptr %2, align 8
  %4 = getelementptr inbounds nuw %"class.duckdb_re2::StringPiece", ptr %3, i32 0, i32 1
  %5 = load i64, ptr %4, align 8, !tbaa !116
  ret i64 %5
}

; Function Attrs: mustprogress nounwind uwtable
define linkonce_odr hidden noundef ptr @_ZNK10duckdb_re211StringPiece4dataEv(ptr noundef nonnull align 8 dereferenceable(16) %0) #1 comdat align 2 {
  %2 = alloca ptr, align 8
  store ptr %0, ptr %2, align 8, !tbaa !111
  %3 = load ptr, ptr %2, align 8
  %4 = getelementptr inbounds nuw %"class.duckdb_re2::StringPiece", ptr %3, i32 0, i32 0
  %5 = load ptr, ptr %4, align 8, !tbaa !114
  ret ptr %5
}

; Function Attrs: mustprogress uwtable
define hidden noundef i32 @_ZN10duckdb_re24Prog10EmptyFlagsERKNS_11StringPieceEPKc(ptr noundef nonnull align 8 dereferenceable(16) %0, ptr noundef %1) #0 align 2 {
  %3 = alloca ptr, align 8
  %4 = alloca ptr, align 8
  %5 = alloca i32, align 4
  store ptr %0, ptr %3, align 8, !tbaa !111
  store ptr %1, ptr %4, align 8, !tbaa !113
  call void @llvm.lifetime.start.p0(i64 4, ptr %5) #17
  store i32 0, ptr %5, align 4, !tbaa !8
  %6 = load ptr, ptr %4, align 8, !tbaa !113
  %7 = load ptr, ptr %3, align 8, !tbaa !111
  %8 = call noundef ptr @_ZNK10duckdb_re211StringPiece4dataEv(ptr noundef nonnull align 8 dereferenceable(16) %7)
  %9 = icmp eq ptr %6, %8
  br i1 %9, label %10, label %13

10:                                               ; preds = %2
  %11 = load i32, ptr %5, align 4, !tbaa !8
  %12 = or i32 %11, 5
  store i32 %12, ptr %5, align 4, !tbaa !8
  br label %23

13:                                               ; preds = %2
  %14 = load ptr, ptr %4, align 8, !tbaa !113
  %15 = getelementptr inbounds i8, ptr %14, i64 -1
  %16 = load i8, ptr %15, align 1, !tbaa !10
  %17 = sext i8 %16 to i32
  %18 = icmp eq i32 %17, 10
  br i1 %18, label %19, label %22

19:                                               ; preds = %13
  %20 = load i32, ptr %5, align 4, !tbaa !8
  %21 = or i32 %20, 1
  store i32 %21, ptr %5, align 4, !tbaa !8
  br label %22

22:                                               ; preds = %19, %13
  br label %23

23:                                               ; preds = %22, %10
  %24 = load ptr, ptr %4, align 8, !tbaa !113
  %25 = load ptr, ptr %3, align 8, !tbaa !111
  %26 = call noundef ptr @_ZNK10duckdb_re211StringPiece4dataEv(ptr noundef nonnull align 8 dereferenceable(16) %25)
  %27 = load ptr, ptr %3, align 8, !tbaa !111
  %28 = call noundef i64 @_ZNK10duckdb_re211StringPiece4sizeEv(ptr noundef nonnull align 8 dereferenceable(16) %27)
  %29 = getelementptr inbounds nuw i8, ptr %26, i64 %28
  %30 = icmp eq ptr %24, %29
  br i1 %30, label %31, label %34

31:                                               ; preds = %23
  %32 = load i32, ptr %5, align 4, !tbaa !8
  %33 = or i32 %32, 10
  store i32 %33, ptr %5, align 4, !tbaa !8
  br label %52

34:                                               ; preds = %23
  %35 = load ptr, ptr %4, align 8, !tbaa !113
  %36 = load ptr, ptr %3, align 8, !tbaa !111
  %37 = call noundef ptr @_ZNK10duckdb_re211StringPiece4dataEv(ptr noundef nonnull align 8 dereferenceable(16) %36)
  %38 = load ptr, ptr %3, align 8, !tbaa !111
  %39 = call noundef i64 @_ZNK10duckdb_re211StringPiece4sizeEv(ptr noundef nonnull align 8 dereferenceable(16) %38)
  %40 = getelementptr inbounds nuw i8, ptr %37, i64 %39
  %41 = icmp ult ptr %35, %40
  br i1 %41, label %42, label %51

42:                                               ; preds = %34
  %43 = load ptr, ptr %4, align 8, !tbaa !113
  %44 = getelementptr inbounds i8, ptr %43, i64 0
  %45 = load i8, ptr %44, align 1, !tbaa !10
  %46 = sext i8 %45 to i32
  %47 = icmp eq i32 %46, 10
  br i1 %47, label %48, label %51

48:                                               ; preds = %42
  %49 = load i32, ptr %5, align 4, !tbaa !8
  %50 = or i32 %49, 2
  store i32 %50, ptr %5, align 4, !tbaa !8
  br label %51

51:                                               ; preds = %48, %42, %34
  br label %52

52:                                               ; preds = %51, %31
  %53 = load ptr, ptr %4, align 8, !tbaa !113
  %54 = load ptr, ptr %3, align 8, !tbaa !111
  %55 = call noundef ptr @_ZNK10duckdb_re211StringPiece4dataEv(ptr noundef nonnull align 8 dereferenceable(16) %54)
  %56 = icmp eq ptr %53, %55
  br i1 %56, label %57, label %66

57:                                               ; preds = %52
  %58 = load ptr, ptr %4, align 8, !tbaa !113
  %59 = load ptr, ptr %3, align 8, !tbaa !111
  %60 = call noundef ptr @_ZNK10duckdb_re211StringPiece4dataEv(ptr noundef nonnull align 8 dereferenceable(16) %59)
  %61 = load ptr, ptr %3, align 8, !tbaa !111
  %62 = call noundef i64 @_ZNK10duckdb_re211StringPiece4sizeEv(ptr noundef nonnull align 8 dereferenceable(16) %61)
  %63 = getelementptr inbounds nuw i8, ptr %60, i64 %62
  %64 = icmp eq ptr %58, %63
  br i1 %64, label %65, label %66

65:                                               ; preds = %57
  br label %115

66:                                               ; preds = %57, %52
  %67 = load ptr, ptr %4, align 8, !tbaa !113
  %68 = load ptr, ptr %3, align 8, !tbaa !111
  %69 = call noundef ptr @_ZNK10duckdb_re211StringPiece4dataEv(ptr noundef nonnull align 8 dereferenceable(16) %68)
  %70 = icmp eq ptr %67, %69
  br i1 %70, label %71, label %80

71:                                               ; preds = %66
  %72 = load ptr, ptr %4, align 8, !tbaa !113
  %73 = getelementptr inbounds i8, ptr %72, i64 0
  %74 = load i8, ptr %73, align 1, !tbaa !10
  %75 = call noundef zeroext i1 @_ZN10duckdb_re24Prog10IsWordCharEh(i8 noundef zeroext %74)
  br i1 %75, label %76, label %79

76:                                               ; preds = %71
  %77 = load i32, ptr %5, align 4, !tbaa !8
  %78 = or i32 %77, 16
  store i32 %78, ptr %5, align 4, !tbaa !8
  br label %79

79:                                               ; preds = %76, %71
  br label %114

80:                                               ; preds = %66
  %81 = load ptr, ptr %4, align 8, !tbaa !113
  %82 = load ptr, ptr %3, align 8, !tbaa !111
  %83 = call noundef ptr @_ZNK10duckdb_re211StringPiece4dataEv(ptr noundef nonnull align 8 dereferenceable(16) %82)
  %84 = load ptr, ptr %3, align 8, !tbaa !111
  %85 = call noundef i64 @_ZNK10duckdb_re211StringPiece4sizeEv(ptr noundef nonnull align 8 dereferenceable(16) %84)
  %86 = getelementptr inbounds nuw i8, ptr %83, i64 %85
  %87 = icmp eq ptr %81, %86
  br i1 %87, label %88, label %97

88:                                               ; preds = %80
  %89 = load ptr, ptr %4, align 8, !tbaa !113
  %90 = getelementptr inbounds i8, ptr %89, i64 -1
  %91 = load i8, ptr %90, align 1, !tbaa !10
  %92 = call noundef zeroext i1 @_ZN10duckdb_re24Prog10IsWordCharEh(i8 noundef zeroext %91)
  br i1 %92, label %93, label %96

93:                                               ; preds = %88
  %94 = load i32, ptr %5, align 4, !tbaa !8
  %95 = or i32 %94, 16
  store i32 %95, ptr %5, align 4, !tbaa !8
  br label %96

96:                                               ; preds = %93, %88
  br label %113

97:                                               ; preds = %80
  %98 = load ptr, ptr %4, align 8, !tbaa !113
  %99 = getelementptr inbounds i8, ptr %98, i64 -1
  %100 = load i8, ptr %99, align 1, !tbaa !10
  %101 = call noundef zeroext i1 @_ZN10duckdb_re24Prog10IsWordCharEh(i8 noundef zeroext %100)
  %102 = zext i1 %101 to i32
  %103 = load ptr, ptr %4, align 8, !tbaa !113
  %104 = getelementptr inbounds i8, ptr %103, i64 0
  %105 = load i8, ptr %104, align 1, !tbaa !10
  %106 = call noundef zeroext i1 @_ZN10duckdb_re24Prog10IsWordCharEh(i8 noundef zeroext %105)
  %107 = zext i1 %106 to i32
  %108 = icmp ne i32 %102, %107
  br i1 %108, label %109, label %112

109:                                              ; preds = %97
  %110 = load i32, ptr %5, align 4, !tbaa !8
  %111 = or i32 %110, 16
  store i32 %111, ptr %5, align 4, !tbaa !8
  br label %112

112:                                              ; preds = %109, %97
  br label %113

113:                                              ; preds = %112, %96
  br label %114

114:                                              ; preds = %113, %79
  br label %115

115:                                              ; preds = %114, %65
  %116 = load i32, ptr %5, align 4, !tbaa !8
  %117 = and i32 %116, 16
  %118 = icmp ne i32 %117, 0
  br i1 %118, label %122, label %119

119:                                              ; preds = %115
  %120 = load i32, ptr %5, align 4, !tbaa !8
  %121 = or i32 %120, 32
  store i32 %121, ptr %5, align 4, !tbaa !8
  br label %122

122:                                              ; preds = %119, %115
  %123 = load i32, ptr %5, align 4, !tbaa !8
  call void @llvm.lifetime.end.p0(i64 4, ptr %5) #17
  ret i32 %123
}