; Function Attrs: mustprogress nofree norecurse nosync nounwind willreturn memory(argmem: read) uwtable
define hidden noundef range(i32 0, 64) i32 @_ZN10duckdb_re24Prog10EmptyFlagsERKNS_11StringPieceEPKc(ptr noundef nonnull readonly align 8 captures(none) dereferenceable(16) %0, ptr noundef readonly captures(address) %1) local_unnamed_addr #9 align 2 {
  %3 = load ptr, ptr %0, align 8, !tbaa !95
  %4 = icmp eq ptr %1, %3
  br i1 %4, label %5, label %.thread64

5:                                                ; preds = %2
  %6 = getelementptr inbounds nuw i8, ptr %0, i64 8
  %7 = load i64, ptr %6, align 8, !tbaa !97
  %8 = getelementptr inbounds nuw i8, ptr %3, i64 %7
  %9 = icmp eq ptr %1, %8
  br i1 %9, label %.thread56, label %17

.thread64:                                        ; preds = %2
  %10 = getelementptr inbounds i8, ptr %1, i64 -1
  %11 = load i8, ptr %10, align 1, !tbaa !8
  %12 = icmp eq i8 %11, 10
  %spec.select = zext i1 %12 to i32
  %13 = getelementptr inbounds nuw i8, ptr %0, i64 8
  %14 = load i64, ptr %13, align 8, !tbaa !97
  %15 = getelementptr inbounds nuw i8, ptr %3, i64 %14
  %16 = icmp eq ptr %1, %15
  br i1 %16, label %32, label %17

17:                                               ; preds = %.thread64, %5
  %18 = phi ptr [ %15, %.thread64 ], [ %8, %5 ]
  %.067 = phi i32 [ %spec.select, %.thread64 ], [ 5, %5 ]
  %19 = icmp ult ptr %1, %18
  br i1 %19, label %20, label %24

20:                                               ; preds = %17
  %21 = load i8, ptr %1, align 1, !tbaa !8
  %22 = icmp eq i8 %21, 10
  %23 = or disjoint i32 %.067, 2
  %spec.select36 = select i1 %22, i32 %23, i32 %.067
  br label %24

24:                                               ; preds = %20, %17
  %.1 = phi i32 [ %.067, %17 ], [ %spec.select36, %20 ]
  br i1 %4, label %25, label %37

25:                                               ; preds = %24
  %26 = load i8, ptr %1, align 1, !tbaa !8
  %27 = and i8 %26, -33
  %28 = add i8 %27, -65
  %or.cond15.i = icmp ult i8 %28, 26
  %29 = add i8 %26, -48
  %or.cond8.i = icmp ult i8 %29, 10
  %or.cond16.i = or i1 %or.cond8.i, %or.cond15.i
  %30 = icmp eq i8 %26, 95
  %spec.select.i = or i1 %30, %or.cond16.i
  %31 = or i32 %.1, 16
  %spec.select37 = select i1 %spec.select.i, i32 %31, i32 %.1
  br label %.thread56

32:                                               ; preds = %.thread64
  %33 = and i8 %11, -33
  %34 = add i8 %33, -65
  %or.cond15.i41 = icmp ult i8 %34, 26
  %35 = add i8 %11, -48
  %or.cond8.i42 = icmp ult i8 %35, 10
  %or.cond16.i43 = or i1 %or.cond8.i42, %or.cond15.i41
  %36 = icmp eq i8 %11, 95
  %spec.select.i44 = or i1 %36, %or.cond16.i43
  %spec.select38.v = select i1 %spec.select.i44, i32 26, i32 10
  %spec.select38 = or disjoint i32 %spec.select38.v, %spec.select
  br label %.thread56

37:                                               ; preds = %24
  %38 = getelementptr inbounds i8, ptr %1, i64 -1
  %39 = load i8, ptr %38, align 1, !tbaa !8
  %40 = and i8 %39, -33
  %41 = add i8 %40, -65
  %or.cond15.i45 = icmp ult i8 %41, 26
  %42 = add i8 %39, -48
  %or.cond8.i46 = icmp ult i8 %42, 10
  %or.cond16.i47 = or i1 %or.cond8.i46, %or.cond15.i45
  %43 = icmp eq i8 %39, 95
  %spec.select.i48 = or i1 %43, %or.cond16.i47
  %44 = load i8, ptr %1, align 1, !tbaa !8
  %45 = and i8 %44, -33
  %46 = add i8 %45, -65
  %or.cond15.i49 = icmp ult i8 %46, 26
  %47 = add i8 %44, -48
  %or.cond8.i50 = icmp ult i8 %47, 10
  %or.cond16.i51 = or i1 %or.cond8.i50, %or.cond15.i49
  %48 = icmp eq i8 %44, 95
  %spec.select.i52 = or i1 %48, %or.cond16.i51
  %49 = xor i1 %spec.select.i48, %spec.select.i52
  %50 = or i32 %.1, 16
  %spec.select39 = select i1 %49, i32 %50, i32 %.1
  br label %.thread56

.thread56:                                        ; preds = %5, %37, %32, %25
  %.2 = phi i32 [ %spec.select37, %25 ], [ %spec.select38, %32 ], [ %spec.select39, %37 ], [ 15, %5 ]
  %51 = shl nuw nsw i32 %.2, 1
  %52 = and i32 %51, 32
  %53 = xor i32 %52, 32
  %spec.select40 = or i32 %53, %.2
  ret i32 %spec.select40
}